target datalayout = "e-m:e-p270:32:32-p271:32:32-p272:64:64-i64:64-i128:128-f80:128-n8:16:32:64-S128"
target triple = "x86_64-pc-linux-gnu"

%struct.ItemPointerData = type { %struct.BlockIdData, i16 }
%struct.BlockIdData = type { i16, i16 }
%struct.ScanKeyData = type { i32, i16, i16, i32, i32, %struct.FmgrInfo, i64 }
%struct.FmgrInfo = type { ptr, i32, i16, i8, i8, i8, ptr, ptr, ptr }
%struct.FormData_pg_depend = type { i32, i32, i32, i32, i32, i32, i8 }
%struct.HeapTupleData = type { i32, %struct.ItemPointerData, i32, ptr }
%struct.HeapTupleHeaderData = type { %union.anon, %struct.ItemPointerData, i16, i16, i8, [0 x i8] }
%union.anon = type { %struct.HeapTupleFields }
%struct.HeapTupleFields = type { i32, i32, %union.anon.0 }
%union.anon.0 = type { i32 }

; Function Attrs: inlinehint nounwind uwtable
define internal ptr @GETSTRUCT(ptr noundef %0) #3 {
  %2 = alloca ptr, align 8
  store ptr %0, ptr %2, align 8
  %3 = load ptr, ptr %2, align 8
  %4 = getelementptr inbounds nuw %struct.HeapTupleData, ptr %3, i32 0, i32 3
  %5 = load ptr, ptr %4, align 8
  %6 = load ptr, ptr %2, align 8
  %7 = getelementptr inbounds nuw %struct.HeapTupleData, ptr %6, i32 0, i32 3
  %8 = load ptr, ptr %7, align 8
  %9 = getelementptr inbounds nuw %struct.HeapTupleHeaderData, ptr %8, i32 0, i32 4
  %10 = load i8, ptr %9, align 2
  %11 = zext i8 %10 to i32
  %12 = sext i32 %11 to i64
  %13 = getelementptr inbounds i8, ptr %5, i64 %12
  ret ptr %13
}

; Function Attrs: inlinehint nounwind uwtable
define internal i64 @ObjectIdGetDatum(i32 noundef %0) #3 {
  %2 = alloca i32, align 4
  store i32 %0, ptr %2, align 4
  %3 = load i32, ptr %2, align 4
  %4 = zext i32 %3 to i64
  ret i64 %4
}

; Function Attrs: nounwind uwtable
define dso_local i32 @getExtensionOfObject(i32 noundef %0, i32 noundef %1) #0 {
  %3 = alloca i32, align 4
  %4 = alloca i32, align 4
  %5 = alloca i32, align 4
  %6 = alloca ptr, align 8
  %7 = alloca [2 x %struct.ScanKeyData], align 16
  %8 = alloca ptr, align 8
  %9 = alloca ptr, align 8
  %10 = alloca ptr, align 8
  %11 = alloca i32, align 4
  store i32 %0, ptr %3, align 4
  store i32 %1, ptr %4, align 4
  call void @llvm.lifetime.start.p0(i64 4, ptr %5) #6
  store i32 0, ptr %5, align 4
  call void @llvm.lifetime.start.p0(i64 8, ptr %6) #6
  call void @llvm.lifetime.start.p0(i64 144, ptr %7) #6
  call void @llvm.lifetime.start.p0(i64 8, ptr %8) #6
  call void @llvm.lifetime.start.p0(i64 8, ptr %9) #6
  %12 = call ptr @table_open(i32 noundef 2608, i32 noundef 1)
  store ptr %12, ptr %6, align 8
  %13 = getelementptr inbounds [2 x %struct.ScanKeyData], ptr %7, i64 0, i64 0
  %14 = load i32, ptr %3, align 4
  %15 = call i64 @ObjectIdGetDatum(i32 noundef %14)
  call void @ScanKeyInit(ptr noundef %13, i16 noundef signext 1, i16 noundef zeroext 3, i32 noundef 184, i64 noundef %15)
  %16 = getelementptr inbounds [2 x %struct.ScanKeyData], ptr %7, i64 0, i64 1
  %17 = load i32, ptr %4, align 4
  %18 = call i64 @ObjectIdGetDatum(i32 noundef %17)
  call void @ScanKeyInit(ptr noundef %16, i16 noundef signext 2, i16 noundef zeroext 3, i32 noundef 184, i64 noundef %18)
  %19 = load ptr, ptr %6, align 8
  %20 = getelementptr inbounds [2 x %struct.ScanKeyData], ptr %7, i64 0, i64 0
  %21 = call ptr @systable_beginscan(ptr noundef %19, i32 noundef 2673, i1 noundef zeroext true, ptr noundef null, i32 noundef 2, ptr noundef %20)
  store ptr %21, ptr %8, align 8
  br label %22

22:                                               ; preds = %46, %2
  %23 = load ptr, ptr %8, align 8
  %24 = call ptr @systable_getnext(ptr noundef %23)
  store ptr %24, ptr %9, align 8
  %25 = icmp ne ptr %24, null
  br i1 %25, label %26, label %47

26:                                               ; preds = %22
  call void @llvm.lifetime.start.p0(i64 8, ptr %10) #6
  %27 = load ptr, ptr %9, align 8
  %28 = call ptr @GETSTRUCT(ptr noundef %27)
  store ptr %28, ptr %10, align 8
  %29 = load ptr, ptr %10, align 8
  %30 = getelementptr inbounds nuw %struct.FormData_pg_depend, ptr %29, i32 0, i32 3
  %31 = load i32, ptr %30, align 4
  %32 = icmp eq i32 %31, 3079
  br i1 %32, label %33, label %43

33:                                               ; preds = %26
  %34 = load ptr, ptr %10, align 8
  %35 = getelementptr inbounds nuw %struct.FormData_pg_depend, ptr %34, i32 0, i32 6
  %36 = load i8, ptr %35, align 4
  %37 = sext i8 %36 to i32
  %38 = icmp eq i32 %37, 101
  br i1 %38, label %39, label %43

39:                                               ; preds = %33
  %40 = load ptr, ptr %10, align 8
  %41 = getelementptr inbounds nuw %struct.FormData_pg_depend, ptr %40, i32 0, i32 4
  %42 = load i32, ptr %41, align 4
  store i32 %42, ptr %5, align 4
  store i32 3, ptr %11, align 4
  br label %44

43:                                               ; preds = %33, %26
  store i32 0, ptr %11, align 4
  br label %44

44:                                               ; preds = %43, %39
  call void @llvm.lifetime.end.p0(i64 8, ptr %10) #6
  %45 = load i32, ptr %11, align 4
  switch i32 %45, label %51 [
    i32 0, label %46
    i32 3, label %47
  ]

46:                                               ; preds = %44
  br label %22, !llvm.loop !9

47:                                               ; preds = %44, %22
  %48 = load ptr, ptr %8, align 8
  call void @systable_endscan(ptr noundef %48)
  %49 = load ptr, ptr %6, align 8
  call void @table_close(ptr noundef %49, i32 noundef 1)
  %50 = load i32, ptr %5, align 4
  store i32 1, ptr %11, align 4
  call void @llvm.lifetime.end.p0(i64 8, ptr %9) #6
  call void @llvm.lifetime.end.p0(i64 8, ptr %8) #6
  call void @llvm.lifetime.end.p0(i64 144, ptr %7) #6
  call void @llvm.lifetime.end.p0(i64 8, ptr %6) #6
  call void @llvm.lifetime.end.p0(i64 4, ptr %5) #6
  ret i32 %50

51:                                               ; preds = %44
  unreachable
}