; Function Attrs: nounwind uwtable
define dso_local i32 @getExtensionOfObject(i32 noundef %0, i32 noundef %1) local_unnamed_addr #0 {
  %3 = alloca [2 x %struct.ScanKeyData], align 16
  call void @llvm.lifetime.start.p0(i64 144, ptr nonnull %3) #7
  %4 = tail call ptr @table_open(i32 noundef 2608, i32 noundef 1) #7
  %5 = zext i32 %0 to i64
  call void @ScanKeyInit(ptr noundef nonnull %3, i16 noundef signext 1, i16 noundef zeroext 3, i32 noundef 184, i64 noundef %5) #7
  %6 = getelementptr inbounds nuw i8, ptr %3, i64 72
  %7 = zext i32 %1 to i64
  call void @ScanKeyInit(ptr noundef nonnull %6, i16 noundef signext 2, i16 noundef zeroext 3, i32 noundef 184, i64 noundef %7) #7
  %8 = call ptr @systable_beginscan(ptr noundef %4, i32 noundef 2673, i1 noundef zeroext true, ptr noundef null, i32 noundef 2, ptr noundef nonnull %3) #7
  %9 = call ptr @systable_getnext(ptr noundef %8) #7
  %.not16 = icmp eq ptr %9, null
  br i1 %.not16, label %.loopexit, label %.lr.ph

.lr.ph:                                           ; preds = %2, %25
  %10 = phi ptr [ %26, %25 ], [ %9, %2 ]
  %11 = getelementptr i8, ptr %10, i64 16
  %.val = load ptr, ptr %11, align 8
  %12 = getelementptr inbounds nuw i8, ptr %.val, i64 22
  %13 = load i8, ptr %12, align 2
  %14 = zext i8 %13 to i64
  %15 = getelementptr inbounds nuw i8, ptr %.val, i64 %14
  %16 = getelementptr inbounds nuw i8, ptr %15, i64 12
  %17 = load i32, ptr %16, align 4
  %18 = icmp eq i32 %17, 3079
  br i1 %18, label %19, label %25

19:                                               ; preds = %.lr.ph
  %20 = getelementptr inbounds nuw i8, ptr %15, i64 24
  %21 = load i8, ptr %20, align 4
  %22 = icmp eq i8 %21, 101
  br i1 %22, label %.thread, label %25

.thread:                                          ; preds = %19
  %23 = getelementptr inbounds nuw i8, ptr %15, i64 16
  %24 = load i32, ptr %23, align 4
  br label %.loopexit

25:                                               ; preds = %.lr.ph, %19
  %26 = call ptr @systable_getnext(ptr noundef %8) #7
  %.not = icmp eq ptr %26, null
  br i1 %.not, label %.loopexit, label %.lr.ph

.loopexit:                                        ; preds = %25, %2, %.thread
  %.1 = phi i32 [ %24, %.thread ], [ 0, %2 ], [ 0, %25 ]
  call void @systable_endscan(ptr noundef %8) #7
  call void @table_close(ptr noundef %4, i32 noundef 1) #7
  call void @llvm.lifetime.end.p0(i64 144, ptr nonnull %3) #7
  ret i32 %.1
}